target datalayout = "e-m:e-p270:32:32-p271:32:32-p272:64:64-i64:64-i128:128-f80:128-n8:16:32:64-S128"
target triple = "x86_64-pc-linux-gnu"

%class.Ui_LBMLBTRMTransportDialog = type { ptr, ptr, ptr, ptr, ptr, ptr, ptr, ptr, ptr, ptr, ptr, ptr, ptr, ptr, ptr, ptr, ptr, ptr, ptr, ptr, ptr, ptr, ptr, ptr, ptr, ptr, ptr, ptr, ptr, ptr, ptr, ptr, ptr, ptr, ptr, ptr, ptr, ptr, ptr, ptr, ptr, ptr, ptr, ptr, ptr, ptr, ptr, ptr, ptr, ptr, ptr, ptr, ptr, ptr, ptr, ptr, ptr, ptr, ptr, ptr }
%class.LBMLBTRMTransportDialog = type { %class.QDialog, ptr, ptr, ptr, ptr, ptr, ptr, ptr }
%class.QDialog = type { %class.QWidget }
%class.QWidget = type { %class.QObject, %class.QPaintDevice.base, ptr }
%class.QObject = type { ptr, %class.QScopedPointer }
%class.QScopedPointer = type { ptr }
%class.QPaintDevice.base = type <{ ptr, i16 }>

; Function Attrs: mustprogress uwtable
define void @_ZN23LBMLBTRMTransportDialog28actionSourceSMRate_triggeredEb(ptr noundef nonnull align 8 dereferenceable(96) %0, i1 noundef zeroext %1) #0 align 2 {
  %3 = alloca ptr, align 8
  %4 = alloca i8, align 1
  store ptr %0, ptr %3, align 8
  %5 = zext i1 %1 to i8
  store i8 %5, ptr %4, align 1
  %6 = load ptr, ptr %3, align 8
  %7 = getelementptr inbounds %class.LBMLBTRMTransportDialog, ptr %6, i32 0, i32 1
  %8 = load ptr, ptr %7, align 8
  %9 = getelementptr inbounds %class.Ui_LBMLBTRMTransportDialog, ptr %8, i32 0, i32 28
  %10 = load ptr, ptr %9, align 8
  %11 = load i8, ptr %4, align 1
  %12 = trunc i8 %11 to i1
  %13 = xor i1 %12, true
  call void @_ZN9QTreeView15setColumnHiddenEib(ptr noundef nonnull align 8 dereferenceable(40) %10, i32 noundef 20, i1 noundef zeroext %13)
  ret void
}